target datalayout = "e-m:e-p270:32:32-p271:32:32-p272:64:64-i64:64-i128:128-f80:128-n8:16:32:64-S128"
target triple = "x86_64-pc-linux-gnu"

@hf_aim_icbm_cookie = internal global i32 0, align 4
@hf_aim_rendezvous_msg_type = internal global i32 0, align 4
@ett_aim_rendezvous_data = internal global i32 0, align 4

; Function Attrs: null_pointer_is_valid sspstrong uwtable
define internal i32 @dissect_aim_tlv_sequence(ptr noundef %0, ptr noundef %1, i32 noundef %2, ptr noundef %3, ptr noundef %4) #0 {
  %6 = alloca ptr, align 8
  %7 = alloca ptr, align 8
  %8 = alloca i32, align 4
  %9 = alloca ptr, align 8
  %10 = alloca ptr, align 8
  store ptr %0, ptr %6, align 8
  store ptr %1, ptr %7, align 8
  store i32 %2, ptr %8, align 4
  store ptr %3, ptr %9, align 8
  store ptr %4, ptr %10, align 8
  br label %11

11:                                               ; preds = %16, %5
  %12 = load ptr, ptr %6, align 8
  %13 = load i32, ptr %8, align 4
  %14 = call i32 @tvb_reported_length_remaining(ptr noundef %12, i32 noundef %13)
  %15 = icmp sgt i32 %14, 0
  br i1 %15, label %16, label %23

16:                                               ; preds = %11
  %17 = load ptr, ptr %6, align 8
  %18 = load ptr, ptr %7, align 8
  %19 = load i32, ptr %8, align 4
  %20 = load ptr, ptr %9, align 8
  %21 = load ptr, ptr %10, align 8
  %22 = call i32 @dissect_aim_tlv(ptr noundef %17, ptr noundef %18, i32 noundef %19, ptr noundef %20, ptr noundef %21)
  store i32 %22, ptr %8, align 4
  br label %11, !llvm.loop !11

23:                                               ; preds = %11
  %24 = load i32, ptr %8, align 4
  ret i32 %24
}

; Function Attrs: null_pointer_is_valid sspstrong uwtable
define internal i32 @dissect_aim_tlv_value_rendezvous(ptr noundef %0, i16 noundef zeroext %1, ptr noundef %2, ptr noundef %3) #0 {
  %5 = alloca ptr, align 8
  %6 = alloca i16, align 2
  %7 = alloca ptr, align 8
  %8 = alloca ptr, align 8
  %9 = alloca i32, align 4
  %10 = alloca ptr, align 8
  store ptr %0, ptr %5, align 8
  store i16 %1, ptr %6, align 2
  store ptr %2, ptr %7, align 8
  store ptr %3, ptr %8, align 8
  call void @llvm.lifetime.start.p0(i64 4, ptr %9) #13
  store i32 0, ptr %9, align 4
  call void @llvm.lifetime.start.p0(i64 8, ptr %10) #13
  %11 = load ptr, ptr %5, align 8
  %12 = load i32, ptr @ett_aim_rendezvous_data, align 4
  %13 = call ptr @proto_item_add_subtree(ptr noundef %11, i32 noundef %12)
  store ptr %13, ptr %10, align 8
  %14 = load ptr, ptr %10, align 8
  %15 = load i32, ptr @hf_aim_rendezvous_msg_type, align 4
  %16 = load ptr, ptr %7, align 8
  %17 = load i32, ptr %9, align 4
  %18 = call ptr @proto_tree_add_item(ptr noundef %14, i32 noundef %15, ptr noundef %16, i32 noundef %17, i32 noundef 2, i32 noundef 0)
  %19 = load i32, ptr %9, align 4
  %20 = add i32 %19, 2
  store i32 %20, ptr %9, align 4
  %21 = load ptr, ptr %10, align 8
  %22 = load i32, ptr @hf_aim_icbm_cookie, align 4
  %23 = load ptr, ptr %7, align 8
  %24 = load i32, ptr %9, align 4
  %25 = call ptr @proto_tree_add_item(ptr noundef %21, i32 noundef %22, ptr noundef %23, i32 noundef %24, i32 noundef 8, i32 noundef 0)
  %26 = load i32, ptr %9, align 4
  %27 = add i32 %26, 8
  store i32 %27, ptr %9, align 4
  %28 = load ptr, ptr %10, align 8
  %29 = load ptr, ptr %7, align 8
  %30 = load i32, ptr %9, align 4
  %31 = call i32 @dissect_aim_capability(ptr noundef %28, ptr noundef %29, i32 noundef %30)
  store i32 %31, ptr %9, align 4
  %32 = load ptr, ptr %7, align 8
  %33 = load ptr, ptr %8, align 8
  %34 = load i32, ptr %9, align 4
  %35 = load ptr, ptr %10, align 8
  %36 = call i32 @dissect_aim_tlv_sequence(ptr noundef %32, ptr noundef %33, i32 noundef %34, ptr noundef %35, ptr noundef @aim_rendezvous_tlvs)
  call void @llvm.lifetime.end.p0(i64 8, ptr %10) #13
  call void @llvm.lifetime.end.p0(i64 4, ptr %9) #13
  ret i32 %36
}