; Function Attrs: null_pointer_is_valid sspstrong uwtable
define internal noundef i32 @dissect_aim_tlv_value_rendezvous(ptr noundef %0, i16 zeroext %1, ptr noundef %2, ptr noundef %3) #0 {
  %5 = load i32, ptr @ett_aim_rendezvous_data, align 4
  %6 = tail call ptr @proto_item_add_subtree(ptr noundef %0, i32 noundef %5)
  %7 = load i32, ptr @hf_aim_rendezvous_msg_type, align 4
  %8 = tail call ptr @proto_tree_add_item(ptr noundef %6, i32 noundef %7, ptr noundef %2, i32 noundef 0, i32 noundef 2, i32 noundef 0)
  %9 = load i32, ptr @hf_aim_icbm_cookie, align 4
  %10 = tail call ptr @proto_tree_add_item(ptr noundef %6, i32 noundef %9, ptr noundef %2, i32 noundef 2, i32 noundef 8, i32 noundef 0)
  %11 = tail call fastcc i32 @dissect_aim_capability(ptr noundef %6, ptr noundef %2, i32 noundef 10)
  %12 = tail call i32 @tvb_reported_length_remaining(ptr noundef %2, i32 noundef %11)
  %13 = icmp sgt i32 %12, 0
  br i1 %13, label %.lr.ph.i, label %dissect_aim_tlv_sequence.exit

.lr.ph.i:                                         ; preds = %4, %.lr.ph.i
  %.07.i = phi i32 [ %14, %.lr.ph.i ], [ %11, %4 ]
  %14 = tail call fastcc i32 @dissect_aim_tlv(ptr noundef %2, ptr noundef %3, i32 noundef %.07.i, ptr noundef %6, ptr noundef nonnull @aim_rendezvous_tlvs)
  %15 = tail call i32 @tvb_reported_length_remaining(ptr noundef %2, i32 noundef %14)
  %16 = icmp sgt i32 %15, 0
  br i1 %16, label %.lr.ph.i, label %dissect_aim_tlv_sequence.exit, !llvm.loop !8

dissect_aim_tlv_sequence.exit:                    ; preds = %.lr.ph.i, %4
  %.0.lcssa.i = phi i32 [ %11, %4 ], [ %14, %.lr.ph.i ]
  ret i32 %.0.lcssa.i
}